; Function Attrs: nounwind uwtable
define i32 @ffurl_delete(ptr noundef %0) local_unnamed_addr #3 {
  %2 = alloca ptr, align 8
  %3 = alloca ptr, align 8
  call void @llvm.lifetime.start.p0(i64 8, ptr nonnull %3) #12
  %4 = call i32 @ffurl_alloc(ptr noundef nonnull %3, ptr noundef %0, i32 noundef 2, ptr noundef null)
  %5 = icmp slt i32 %4, 0
  br i1 %5, label %16, label %6

6:                                                ; preds = %1
  %7 = load ptr, ptr %3, align 8, !tbaa !41
  %8 = getelementptr inbounds nuw i8, ptr %7, i64 8
  %9 = load ptr, ptr %8, align 8, !tbaa !21
  %10 = getelementptr inbounds nuw i8, ptr %9, i64 168
  %11 = load ptr, ptr %10, align 8, !tbaa !88
  %.not = icmp eq ptr %11, null
  br i1 %.not, label %14, label %12

12:                                               ; preds = %6
  %13 = tail call i32 %11(ptr noundef nonnull %7) #12
  br label %14

14:                                               ; preds = %6, %12
  %.0 = phi i32 [ %13, %12 ], [ -38, %6 ]
  call void @llvm.lifetime.start.p0(i64 8, ptr nonnull %2)
  store ptr %7, ptr %2, align 8, !tbaa !41
  %15 = call i32 @ffurl_closep(ptr noundef nonnull %2)
  call void @llvm.lifetime.end.p0(i64 8, ptr nonnull %2)
  br label %16

16:                                               ; preds = %1, %14
  %.04 = phi i32 [ %.0, %14 ], [ %4, %1 ]
  call void @llvm.lifetime.end.p0(i64 8, ptr nonnull %3) #12
  ret i32 %.04
}